; Function Attrs: nounwind uwtable
define void @OSSL_STORE_LOADER_do_all_provided(ptr noundef %0, ptr noundef %1, ptr noundef %2) local_unnamed_addr #2 {
  %4 = alloca %struct.loader_data_st, align 8
  %5 = alloca %struct.do_one_data_st, align 8
  call void @llvm.lifetime.start.p0(i64 48, ptr nonnull %4) #6
  call void @llvm.lifetime.start.p0(i64 16, ptr nonnull %5) #6
  store ptr %0, ptr %4, align 8, !tbaa !13
  %6 = getelementptr inbounds nuw i8, ptr %4, i64 32
  store ptr null, ptr %6, align 8, !tbaa !17
  %7 = call fastcc ptr @inner_loader_fetch(ptr noundef %4, ptr noundef null, ptr noundef null)
  store ptr %1, ptr %5, align 8, !tbaa !27
  %8 = getelementptr inbounds nuw i8, ptr %5, i64 8
  store ptr %2, ptr %8, align 8, !tbaa !29
  %9 = load ptr, ptr %6, align 8, !tbaa !17
  %.not = icmp eq ptr %9, null
  br i1 %.not, label %11, label %10

10:                                               ; preds = %3
  call void @ossl_method_store_do_all(ptr noundef nonnull %9, ptr noundef nonnull @do_one, ptr noundef nonnull %5) #6
  br label %11

11:                                               ; preds = %10, %3
  %12 = call ptr @ossl_lib_ctx_get_data(ptr noundef %0, i32 noundef 15) #6
  call void @ossl_method_store_do_all(ptr noundef %12, ptr noundef nonnull @do_one, ptr noundef nonnull %5) #6
  %13 = load ptr, ptr %6, align 8, !tbaa !17
  %.not.i = icmp eq ptr %13, null
  br i1 %.not.i, label %dealloc_tmp_loader_store.exit, label %14

14:                                               ; preds = %11
  call void @ossl_method_store_free(ptr noundef nonnull %13) #6
  br label %dealloc_tmp_loader_store.exit

dealloc_tmp_loader_store.exit:                    ; preds = %11, %14
  call void @llvm.lifetime.end.p0(i64 16, ptr nonnull %5) #6
  call void @llvm.lifetime.end.p0(i64 48, ptr nonnull %4) #6
  ret void
}